; Function Attrs: nounwind uwtable
define dso_local ptr @callReplyGetVerbatim(ptr noundef %0, ptr noundef writeonly captures(none) %1, ptr noundef writeonly captures(address_is_null) %2) local_unnamed_addr #0 {
  %4 = alloca %struct.ReplyParser, align 8
  %5 = getelementptr inbounds nuw i8, ptr %0, i64 36
  %6 = load i32, ptr %5, align 4, !tbaa !5
  %7 = and i32 %6, 2
  %.not.i = icmp eq i32 %7, 0
  br i1 %.not.i, label %8, label %callReplyParse.exit

8:                                                ; preds = %3
  call void @llvm.lifetime.start.p0(i64 136, ptr nonnull %4) #8
  %9 = getelementptr inbounds nuw i8, ptr %0, i64 16
  %10 = load ptr, ptr %9, align 8, !tbaa !25
  store ptr %10, ptr %4, align 8, !tbaa !26
  %11 = getelementptr inbounds nuw i8, ptr %4, i64 8
  call void @llvm.memcpy.p0.p0.i64(ptr noundef nonnull align 8 dereferenceable(128) %11, ptr noundef nonnull align 8 dereferenceable(128) @DefaultParserCallbacks, i64 128, i1 false), !tbaa.struct !29
  %12 = call i32 @parseReply(ptr noundef nonnull %4, ptr noundef nonnull %0) #8
  %13 = load i32, ptr %5, align 4, !tbaa !5
  %14 = or i32 %13, 2
  store i32 %14, ptr %5, align 4, !tbaa !5
  call void @llvm.lifetime.end.p0(i64 136, ptr nonnull %4) #8
  br label %callReplyParse.exit

callReplyParse.exit:                              ; preds = %3, %8
  %15 = getelementptr inbounds nuw i8, ptr %0, i64 32
  %16 = load i32, ptr %15, align 8, !tbaa !15
  %.not = icmp eq i32 %16, 10
  br i1 %.not, label %17, label %26

17:                                               ; preds = %callReplyParse.exit
  %18 = getelementptr inbounds nuw i8, ptr %0, i64 40
  %19 = load i64, ptr %18, align 8, !tbaa !18
  store i64 %19, ptr %1, align 8, !tbaa !31
  %.not10 = icmp eq ptr %2, null
  br i1 %.not10, label %23, label %20

20:                                               ; preds = %17
  %21 = getelementptr inbounds nuw i8, ptr %0, i64 56
  %22 = load ptr, ptr %21, align 8, !tbaa !19
  store ptr %22, ptr %2, align 8, !tbaa !33
  br label %23

23:                                               ; preds = %20, %17
  %24 = getelementptr inbounds nuw i8, ptr %0, i64 48
  %25 = load ptr, ptr %24, align 8, !tbaa !19
  br label %26

26:                                               ; preds = %callReplyParse.exit, %23
  %.0 = phi ptr [ %25, %23 ], [ null, %callReplyParse.exit ]
  ret ptr %.0
}